target datalayout = "e-m:e-p270:32:32-p271:32:32-p272:64:64-i64:64-i128:128-f80:128-n8:16:32:64-S128"
target triple = "x86_64-pc-linux-gnu"

%"class.std::__cxx11::basic_string" = type { %"struct.std::__cxx11::basic_string<char>::_Alloc_hider", i64, %union.anon }
%"struct.std::__cxx11::basic_string<char>::_Alloc_hider" = type { ptr }
%union.anon = type { i64, [8 x i8] }
%"class.i18n::phonenumbers::PhoneNumberMatcher" = type <{ ptr, ptr, ptr, %"class.std::__cxx11::basic_string", %"class.std::__cxx11::basic_string", i32, i32, i32, [4 x i8], %"class.boost::scoped_ptr", i32, i8, [3 x i8] }>
%"class.boost::scoped_ptr" = type { ptr }
%"class.i18n::phonenumbers::PhoneNumber" = type { %"class.google::protobuf::MessageLite", %"class.google::protobuf::internal::HasBits", %"class.google::protobuf::internal::CachedSize", %"struct.google::protobuf::internal::ArenaStringPtr", %"struct.google::protobuf::internal::ArenaStringPtr", %"struct.google::protobuf::internal::ArenaStringPtr", i64, i32, i8, i32, i32 }
%"class.google::protobuf::MessageLite" = type { ptr, %"class.google::protobuf::internal::InternalMetadata" }
%"class.google::protobuf::internal::InternalMetadata" = type { ptr }
%"class.google::protobuf::internal::HasBits" = type { [1 x i32] }
%"class.google::protobuf::internal::CachedSize" = type { %"struct.std::atomic.14" }
%"struct.std::atomic.14" = type { %"struct.std::__atomic_base.15" }
%"struct.std::__atomic_base.15" = type { i32 }
%"struct.google::protobuf::internal::ArenaStringPtr" = type { ptr }
%"class.i18n::phonenumbers::PhoneNumberMatch" = type { i32, %"class.std::__cxx11::basic_string", %"class.i18n::phonenumbers::PhoneNumber" }

; Function Attrs: mustprogress nounwind uwtable
define linkonce_odr dso_local void @_ZN5boost14checked_deleteIN4i18n12phonenumbers16PhoneNumberMatchEEEvPT_(ptr noundef %0) #5 comdat {
  %2 = alloca ptr, align 8
  store ptr %0, ptr %2, align 8
  %3 = load ptr, ptr %2, align 8
  %4 = icmp eq ptr %3, null
  br i1 %4, label %6, label %5

5:                                                ; preds = %1
  call void @_ZN4i18n12phonenumbers16PhoneNumberMatchD2Ev(ptr noundef nonnull align 8 dereferenceable(112) %3) #3
  call void @_ZdlPv(ptr noundef %3) #18
  br label %6

6:                                                ; preds = %5, %1
  ret void
}

; Function Attrs: mustprogress nounwind uwtable
define linkonce_odr dso_local void @_ZN5boost10scoped_ptrIN4i18n12phonenumbers16PhoneNumberMatchEED2Ev(ptr noundef nonnull align 8 dereferenceable(8) %0) unnamed_addr #5 comdat align 2 {
  %2 = alloca ptr, align 8
  store ptr %0, ptr %2, align 8
  %3 = load ptr, ptr %2, align 8
  %4 = getelementptr inbounds %"class.boost::scoped_ptr", ptr %3, i32 0, i32 0
  %5 = load ptr, ptr %4, align 8
  call void @_ZN5boost14checked_deleteIN4i18n12phonenumbers16PhoneNumberMatchEEEvPT_(ptr noundef %5) #3
  ret void
}

; Function Attrs: mustprogress nounwind uwtable
define linkonce_odr dso_local void @_ZN5boost10scoped_ptrIN4i18n12phonenumbers16PhoneNumberMatchEE4swapERS4_(ptr noundef nonnull align 8 dereferenceable(8) %0, ptr noundef nonnull align 8 dereferenceable(8) %1) #5 comdat align 2 {
  %3 = alloca ptr, align 8
  %4 = alloca ptr, align 8
  %5 = alloca ptr, align 8
  store ptr %0, ptr %3, align 8
  store ptr %1, ptr %4, align 8
  %6 = load ptr, ptr %3, align 8
  %7 = load ptr, ptr %4, align 8
  %8 = getelementptr inbounds %"class.boost::scoped_ptr", ptr %7, i32 0, i32 0
  %9 = load ptr, ptr %8, align 8
  store ptr %9, ptr %5, align 8
  %10 = getelementptr inbounds %"class.boost::scoped_ptr", ptr %6, i32 0, i32 0
  %11 = load ptr, ptr %10, align 8
  %12 = load ptr, ptr %4, align 8
  %13 = getelementptr inbounds %"class.boost::scoped_ptr", ptr %12, i32 0, i32 0
  store ptr %11, ptr %13, align 8
  %14 = load ptr, ptr %5, align 8
  %15 = getelementptr inbounds %"class.boost::scoped_ptr", ptr %6, i32 0, i32 0
  store ptr %14, ptr %15, align 8
  ret void
}

; Function Attrs: mustprogress nounwind uwtable
define linkonce_odr dso_local void @_ZN5boost10scoped_ptrIN4i18n12phonenumbers16PhoneNumberMatchEEC2EPS3_(ptr noundef nonnull align 8 dereferenceable(8) %0, ptr noundef %1) unnamed_addr #5 comdat align 2 {
  %3 = alloca ptr, align 8
  %4 = alloca ptr, align 8
  store ptr %0, ptr %3, align 8
  store ptr %1, ptr %4, align 8
  %5 = load ptr, ptr %3, align 8
  %6 = getelementptr inbounds %"class.boost::scoped_ptr", ptr %5, i32 0, i32 0
  %7 = load ptr, ptr %4, align 8
  store ptr %7, ptr %6, align 8
  ret void
}

; Function Attrs: mustprogress nounwind uwtable
define linkonce_odr dso_local void @_ZN4i18n12phonenumbers16PhoneNumberMatchD2Ev(ptr noundef nonnull align 8 dereferenceable(112) %0) unnamed_addr #5 comdat align 2 {
  %2 = alloca ptr, align 8
  store ptr %0, ptr %2, align 8
  %3 = load ptr, ptr %2, align 8
  %4 = getelementptr inbounds %"class.i18n::phonenumbers::PhoneNumberMatch", ptr %3, i32 0, i32 2
  call void @_ZN4i18n12phonenumbers11PhoneNumberD1Ev(ptr noundef nonnull align 8 dereferenceable(72) %4) #3
  %5 = getelementptr inbounds %"class.i18n::phonenumbers::PhoneNumberMatch", ptr %3, i32 0, i32 1
  call void @_ZNSt7__cxx1112basic_stringIcSt11char_traitsIcESaIcEED1Ev(ptr noundef nonnull align 8 dereferenceable(32) %5) #3
  ret void
}

; Function Attrs: mustprogress nounwind uwtable
define linkonce_odr dso_local noundef ptr @_ZNK5boost10scoped_ptrIN4i18n12phonenumbers16PhoneNumberMatchEEptEv(ptr noundef nonnull align 8 dereferenceable(8) %0) #5 comdat align 2 {
  %2 = alloca ptr, align 8
  store ptr %0, ptr %2, align 8
  %3 = load ptr, ptr %2, align 8
  %4 = getelementptr inbounds %"class.boost::scoped_ptr", ptr %3, i32 0, i32 0
  %5 = load ptr, ptr %4, align 8
  ret ptr %5
}

; Function Attrs: mustprogress nounwind uwtable
define linkonce_odr dso_local void @_ZN5boost10scoped_ptrIN4i18n12phonenumbers16PhoneNumberMatchEE5resetEPS3_(ptr noundef nonnull align 8 dereferenceable(8) %0, ptr noundef %1) #5 comdat align 2 {
  %3 = alloca ptr, align 8
  %4 = alloca ptr, align 8
  %5 = alloca %"class.boost::scoped_ptr", align 8
  store ptr %0, ptr %3, align 8
  store ptr %1, ptr %4, align 8
  %6 = load ptr, ptr %3, align 8
  %7 = load ptr, ptr %4, align 8
  call void @_ZN5boost10scoped_ptrIN4i18n12phonenumbers16PhoneNumberMatchEEC2EPS3_(ptr noundef nonnull align 8 dereferenceable(8) %5, ptr noundef %7) #3
  call void @_ZN5boost10scoped_ptrIN4i18n12phonenumbers16PhoneNumberMatchEE4swapERS4_(ptr noundef nonnull align 8 dereferenceable(8) %5, ptr noundef nonnull align 8 dereferenceable(8) %6) #3
  call void @_ZN5boost10scoped_ptrIN4i18n12phonenumbers16PhoneNumberMatchEED2Ev(ptr noundef nonnull align 8 dereferenceable(8) %5) #3
  ret void
}

; Function Attrs: mustprogress uwtable
define dso_local noundef zeroext i1 @_ZN4i18n12phonenumbers18PhoneNumberMatcher7HasNextEv(ptr noundef nonnull align 8 dereferenceable(117) %0) #4 align 2 personality ptr @__gxx_personality_v0 {
  %2 = alloca i1, align 1
  %3 = alloca ptr, align 8
  %4 = alloca %"class.i18n::phonenumbers::PhoneNumberMatch", align 8
  %5 = alloca ptr, align 8
  %6 = alloca i32, align 4
  store ptr %0, ptr %3, align 8
  %7 = load ptr, ptr %3, align 8
  %8 = getelementptr inbounds %"class.i18n::phonenumbers::PhoneNumberMatcher", ptr %7, i32 0, i32 11
  %9 = load i8, ptr %8, align 4
  %10 = trunc i8 %9 to i1
  br i1 %10, label %13, label %11

11:                                               ; preds = %1
  %12 = getelementptr inbounds %"class.i18n::phonenumbers::PhoneNumberMatcher", ptr %7, i32 0, i32 7
  store i32 2, ptr %12, align 8
  store i1 false, ptr %2, align 1
  br label %55

13:                                               ; preds = %1
  %14 = getelementptr inbounds %"class.i18n::phonenumbers::PhoneNumberMatcher", ptr %7, i32 0, i32 7
  %15 = load i32, ptr %14, align 8
  %16 = icmp eq i32 %15, 0
  br i1 %16, label %17, label %51

17:                                               ; preds = %13
  call void @_ZN4i18n12phonenumbers16PhoneNumberMatchC1Ev(ptr noundef nonnull align 8 dereferenceable(112) %4)
  %18 = getelementptr inbounds %"class.i18n::phonenumbers::PhoneNumberMatcher", ptr %7, i32 0, i32 10
  %19 = load i32, ptr %18, align 8
  %20 = invoke noundef zeroext i1 @_ZN4i18n12phonenumbers18PhoneNumberMatcher4FindEiPNS0_16PhoneNumberMatchE(ptr noundef nonnull align 8 dereferenceable(117) %7, i32 noundef %19, ptr noundef %4)
          to label %21 unwind label %24

21:                                               ; preds = %17
  br i1 %20, label %28, label %22

22:                                               ; preds = %21
  %23 = getelementptr inbounds %"class.i18n::phonenumbers::PhoneNumberMatcher", ptr %7, i32 0, i32 7
  store i32 2, ptr %23, align 8
  br label %49

24:                                               ; preds = %38, %28, %17
  %25 = landingpad { ptr, i32 }
          cleanup
  %26 = extractvalue { ptr, i32 } %25, 0
  store ptr %26, ptr %5, align 8
  %27 = extractvalue { ptr, i32 } %25, 1
  store i32 %27, ptr %6, align 4
  br label %50

28:                                               ; preds = %21
  %29 = getelementptr inbounds %"class.i18n::phonenumbers::PhoneNumberMatcher", ptr %7, i32 0, i32 9
  %30 = invoke noalias noundef nonnull ptr @_Znwm(i64 noundef 112) #17
          to label %31 unwind label %24

31:                                               ; preds = %28
  %32 = invoke noundef i32 @_ZNK4i18n12phonenumbers16PhoneNumberMatch5startEv(ptr noundef nonnull align 8 dereferenceable(112) %4)
          to label %33 unwind label %45

33:                                               ; preds = %31
  %34 = invoke noundef nonnull align 8 dereferenceable(32) ptr @_ZNK4i18n12phonenumbers16PhoneNumberMatch10raw_stringB5cxx11Ev(ptr noundef nonnull align 8 dereferenceable(112) %4)
          to label %35 unwind label %45

35:                                               ; preds = %33
  %36 = invoke noundef nonnull align 8 dereferenceable(72) ptr @_ZNK4i18n12phonenumbers16PhoneNumberMatch6numberEv(ptr noundef nonnull align 8 dereferenceable(112) %4)
          to label %37 unwind label %45

37:                                               ; preds = %35
  invoke void @_ZN4i18n12phonenumbers16PhoneNumberMatchC1EiRKNSt7__cxx1112basic_stringIcSt11char_traitsIcESaIcEEERKNS0_11PhoneNumberE(ptr noundef nonnull align 8 dereferenceable(112) %30, i32 noundef %32, ptr noundef nonnull align 8 dereferenceable(32) %34, ptr noundef nonnull align 8 dereferenceable(72) %36)
          to label %38 unwind label %45

38:                                               ; preds = %37
  call void @_ZN5boost10scoped_ptrIN4i18n12phonenumbers16PhoneNumberMatchEE5resetEPS3_(ptr noundef nonnull align 8 dereferenceable(8) %29, ptr noundef %30) #3
  %39 = getelementptr inbounds %"class.i18n::phonenumbers::PhoneNumberMatcher", ptr %7, i32 0, i32 9
  %40 = call noundef ptr @_ZNK5boost10scoped_ptrIN4i18n12phonenumbers16PhoneNumberMatchEEptEv(ptr noundef nonnull align 8 dereferenceable(8) %39) #3
  %41 = invoke noundef i32 @_ZNK4i18n12phonenumbers16PhoneNumberMatch3endEv(ptr noundef nonnull align 8 dereferenceable(112) %40)
          to label %42 unwind label %24

42:                                               ; preds = %38
  %43 = getelementptr inbounds %"class.i18n::phonenumbers::PhoneNumberMatcher", ptr %7, i32 0, i32 10
  store i32 %41, ptr %43, align 8
  %44 = getelementptr inbounds %"class.i18n::phonenumbers::PhoneNumberMatcher", ptr %7, i32 0, i32 7
  store i32 1, ptr %44, align 8
  br label %49

45:                                               ; preds = %37, %35, %33, %31
  %46 = landingpad { ptr, i32 }
          cleanup
  %47 = extractvalue { ptr, i32 } %46, 0
  store ptr %47, ptr %5, align 8
  %48 = extractvalue { ptr, i32 } %46, 1
  store i32 %48, ptr %6, align 4
  call void @_ZdlPv(ptr noundef %30) #18
  br label %50

49:                                               ; preds = %42, %22
  call void @_ZN4i18n12phonenumbers16PhoneNumberMatchD2Ev(ptr noundef nonnull align 8 dereferenceable(112) %4) #3
  br label %51

50:                                               ; preds = %45, %24
  call void @_ZN4i18n12phonenumbers16PhoneNumberMatchD2Ev(ptr noundef nonnull align 8 dereferenceable(112) %4) #3
  br label %57

51:                                               ; preds = %49, %13
  %52 = getelementptr inbounds %"class.i18n::phonenumbers::PhoneNumberMatcher", ptr %7, i32 0, i32 7
  %53 = load i32, ptr %52, align 8
  %54 = icmp eq i32 %53, 1
  store i1 %54, ptr %2, align 1
  br label %55

55:                                               ; preds = %51, %11
  %56 = load i1, ptr %2, align 1
  ret i1 %56

57:                                               ; preds = %50
  %58 = load ptr, ptr %5, align 8
  %59 = load i32, ptr %6, align 4
  %60 = insertvalue { ptr, i32 } poison, ptr %58, 0
  %61 = insertvalue { ptr, i32 } %60, i32 %59, 1
  resume { ptr, i32 } %61
}