; Function Attrs: mustprogress uwtable
define dso_local noundef zeroext i1 @_ZN4i18n12phonenumbers18PhoneNumberMatcher7HasNextEv(ptr noundef nonnull align 8 dereferenceable(117) %0) local_unnamed_addr #4 align 2 personality ptr @__gxx_personality_v0 {
  %2 = alloca %"class.i18n::phonenumbers::PhoneNumberMatch", align 8
  %3 = getelementptr inbounds i8, ptr %0, i64 116
  %4 = load i8, ptr %3, align 4
  %5 = and i8 %4, 1
  %.not = icmp eq i8 %5, 0
  %6 = getelementptr inbounds i8, ptr %0, i64 96
  br i1 %.not, label %7, label %8

7:                                                ; preds = %1
  store i32 2, ptr %6, align 8
  br label %48

8:                                                ; preds = %1
  %9 = load i32, ptr %6, align 8
  %10 = icmp eq i32 %9, 0
  br i1 %10, label %11, label %45

11:                                               ; preds = %8
  call void @_ZN4i18n12phonenumbers16PhoneNumberMatchC1Ev(ptr noundef nonnull align 8 dereferenceable(112) %2)
  %12 = getelementptr inbounds i8, ptr %0, i64 112
  %13 = load i32, ptr %12, align 8
  %14 = invoke noundef zeroext i1 @_ZN4i18n12phonenumbers18PhoneNumberMatcher4FindEiPNS0_16PhoneNumberMatchE(ptr noundef nonnull align 8 dereferenceable(117) %0, i32 noundef %13, ptr noundef nonnull %2)
          to label %15 unwind label %16

15:                                               ; preds = %11
  br i1 %14, label %18, label %39

16:                                               ; preds = %_ZN5boost10scoped_ptrIN4i18n12phonenumbers16PhoneNumberMatchEE5resetEPS3_.exit, %18, %11
  %17 = landingpad { ptr, i32 }
          cleanup
  br label %42

18:                                               ; preds = %15
  %19 = getelementptr inbounds i8, ptr %0, i64 104
  %20 = invoke noalias noundef nonnull dereferenceable(112) ptr @_Znwm(i64 noundef 112) #21
          to label %21 unwind label %16

21:                                               ; preds = %18
  %22 = invoke noundef i32 @_ZNK4i18n12phonenumbers16PhoneNumberMatch5startEv(ptr noundef nonnull align 8 dereferenceable(112) %2)
          to label %23 unwind label %37

23:                                               ; preds = %21
  %24 = invoke noundef nonnull align 8 dereferenceable(32) ptr @_ZNK4i18n12phonenumbers16PhoneNumberMatch10raw_stringB5cxx11Ev(ptr noundef nonnull align 8 dereferenceable(112) %2)
          to label %25 unwind label %37

25:                                               ; preds = %23
  %26 = invoke noundef nonnull align 8 dereferenceable(72) ptr @_ZNK4i18n12phonenumbers16PhoneNumberMatch6numberEv(ptr noundef nonnull align 8 dereferenceable(112) %2)
          to label %27 unwind label %37

27:                                               ; preds = %25
  invoke void @_ZN4i18n12phonenumbers16PhoneNumberMatchC1EiRKNSt7__cxx1112basic_stringIcSt11char_traitsIcESaIcEEERKNS0_11PhoneNumberE(ptr noundef nonnull align 8 dereferenceable(112) %20, i32 noundef %22, ptr noundef nonnull align 8 dereferenceable(32) %24, ptr noundef nonnull align 8 dereferenceable(72) %26)
          to label %28 unwind label %37

28:                                               ; preds = %27
  %29 = load ptr, ptr %19, align 8
  store ptr %20, ptr %19, align 8
  %30 = icmp eq ptr %29, null
  br i1 %30, label %_ZN5boost10scoped_ptrIN4i18n12phonenumbers16PhoneNumberMatchEE5resetEPS3_.exit, label %31

31:                                               ; preds = %28
  %32 = getelementptr inbounds i8, ptr %29, i64 40
  call void @_ZN4i18n12phonenumbers11PhoneNumberD1Ev(ptr noundef nonnull align 8 dereferenceable(72) %32) #19
  %33 = getelementptr inbounds i8, ptr %29, i64 8
  call void @_ZNSt7__cxx1112basic_stringIcSt11char_traitsIcESaIcEED1Ev(ptr noundef nonnull align 8 dereferenceable(32) %33) #19
  call void @_ZdlPv(ptr noundef nonnull %29) #22
  %.pre = load ptr, ptr %19, align 8
  br label %_ZN5boost10scoped_ptrIN4i18n12phonenumbers16PhoneNumberMatchEE5resetEPS3_.exit

_ZN5boost10scoped_ptrIN4i18n12phonenumbers16PhoneNumberMatchEE5resetEPS3_.exit: ; preds = %28, %31
  %34 = phi ptr [ %20, %28 ], [ %.pre, %31 ]
  %35 = invoke noundef i32 @_ZNK4i18n12phonenumbers16PhoneNumberMatch3endEv(ptr noundef nonnull align 8 dereferenceable(112) %34)
          to label %36 unwind label %16

36:                                               ; preds = %_ZN5boost10scoped_ptrIN4i18n12phonenumbers16PhoneNumberMatchEE5resetEPS3_.exit
  store i32 %35, ptr %12, align 8
  br label %39

37:                                               ; preds = %27, %25, %23, %21
  %38 = landingpad { ptr, i32 }
          cleanup
  call void @_ZdlPv(ptr noundef nonnull %20) #22
  br label %42

39:                                               ; preds = %15, %36
  %storemerge = phi i32 [ 1, %36 ], [ 2, %15 ]
  store i32 %storemerge, ptr %6, align 8
  %40 = getelementptr inbounds i8, ptr %2, i64 40
  call void @_ZN4i18n12phonenumbers11PhoneNumberD1Ev(ptr noundef nonnull align 8 dereferenceable(72) %40) #19
  %41 = getelementptr inbounds i8, ptr %2, i64 8
  call void @_ZNSt7__cxx1112basic_stringIcSt11char_traitsIcESaIcEED1Ev(ptr noundef nonnull align 8 dereferenceable(32) %41) #19
  %.pre6 = load i32, ptr %6, align 8
  br label %45

42:                                               ; preds = %37, %16
  %.pn = phi { ptr, i32 } [ %17, %16 ], [ %38, %37 ]
  %43 = getelementptr inbounds i8, ptr %2, i64 40
  call void @_ZN4i18n12phonenumbers11PhoneNumberD1Ev(ptr noundef nonnull align 8 dereferenceable(72) %43) #19
  %44 = getelementptr inbounds i8, ptr %2, i64 8
  call void @_ZNSt7__cxx1112basic_stringIcSt11char_traitsIcESaIcEED1Ev(ptr noundef nonnull align 8 dereferenceable(32) %44) #19
  resume { ptr, i32 } %.pn

45:                                               ; preds = %39, %8
  %46 = phi i32 [ %.pre6, %39 ], [ %9, %8 ]
  %47 = icmp eq i32 %46, 1
  br label %48

48:                                               ; preds = %45, %7
  %.04 = phi i1 [ %47, %45 ], [ false, %7 ]
  ret i1 %.04
}